target datalayout = "e-m:e-p270:32:32-p271:32:32-p272:64:64-i64:64-i128:128-f80:128-n8:16:32:64-S128"
target triple = "x86_64-unknown-linux-gnu"

%"class.net::QuicSentEntropyManager" = type { ptr, %"class.std::deque", i64, %"struct.net::QuicSentEntropyManager::CumulativeEntropy", %"struct.net::QuicSentEntropyManager::CumulativeEntropy" }
%"class.std::deque" = type { %"class.std::_Deque_base" }
%"class.std::_Deque_base" = type { %"struct.std::_Deque_base<unsigned char, std::allocator<unsigned char>>::_Deque_impl" }
%"struct.std::_Deque_base<unsigned char, std::allocator<unsigned char>>::_Deque_impl" = type { %"struct.std::_Deque_base<unsigned char, std::allocator<unsigned char>>::_Deque_impl_data" }
%"struct.std::_Deque_base<unsigned char, std::allocator<unsigned char>>::_Deque_impl_data" = type { ptr, i64, %"struct.std::_Deque_iterator", %"struct.std::_Deque_iterator" }
%"struct.std::_Deque_iterator" = type { ptr, ptr, ptr, ptr }
%"struct.net::QuicSentEntropyManager::CumulativeEntropy" = type <{ i64, i8, [7 x i8] }>

; Function Attrs: mustprogress nounwind uwtable
define linkonce_odr dso_local noundef i64 @_ZSt16__deque_buf_sizem(i64 noundef %__size) #1 comdat {
entry:
  %__size.addr = alloca i64, align 8
  store i64 %__size, ptr %__size.addr, align 8
  %0 = load i64, ptr %__size.addr, align 8
  %cmp = icmp ult i64 %0, 512
  br i1 %cmp, label %cond.true, label %cond.false

cond.true:                                        ; preds = %entry
  %1 = load i64, ptr %__size.addr, align 8
  %div = udiv i64 512, %1
  br label %cond.end

cond.false:                                       ; preds = %entry
  br label %cond.end

cond.end:                                         ; preds = %cond.false, %cond.true
  %cond = phi i64 [ %div, %cond.true ], [ 1, %cond.false ]
  ret i64 %cond
}

; Function Attrs: mustprogress nounwind uwtable
define linkonce_odr dso_local void @_ZNSt15_Deque_iteratorIhRhPhE11_M_set_nodeEPS1_(ptr noundef nonnull align 8 dereferenceable(32) %this, ptr noundef %__new_node) #1 comdat align 2 {
entry:
  %this.addr = alloca ptr, align 8
  %__new_node.addr = alloca ptr, align 8
  store ptr %this, ptr %this.addr, align 8
  store ptr %__new_node, ptr %__new_node.addr, align 8
  %this1 = load ptr, ptr %this.addr, align 8
  %0 = load ptr, ptr %__new_node.addr, align 8
  %_M_node = getelementptr inbounds %"struct.std::_Deque_iterator", ptr %this1, i32 0, i32 3
  store ptr %0, ptr %_M_node, align 8
  %1 = load ptr, ptr %__new_node.addr, align 8
  %2 = load ptr, ptr %1, align 8
  %_M_first = getelementptr inbounds %"struct.std::_Deque_iterator", ptr %this1, i32 0, i32 1
  store ptr %2, ptr %_M_first, align 8
  %_M_first2 = getelementptr inbounds %"struct.std::_Deque_iterator", ptr %this1, i32 0, i32 1
  %3 = load ptr, ptr %_M_first2, align 8
  %call = call noundef i64 @_ZNSt15_Deque_iteratorIhRhPhE14_S_buffer_sizeEv() #10
  %add.ptr = getelementptr inbounds i8, ptr %3, i64 %call
  %_M_last = getelementptr inbounds %"struct.std::_Deque_iterator", ptr %this1, i32 0, i32 2
  store ptr %add.ptr, ptr %_M_last, align 8
  ret void
}

; Function Attrs: mustprogress nounwind uwtable
define linkonce_odr dso_local noundef i64 @_ZNSt15_Deque_iteratorIhRhPhE14_S_buffer_sizeEv() #1 comdat align 2 {
entry:
  %call = call noundef i64 @_ZSt16__deque_buf_sizem(i64 noundef 1)
  ret i64 %call
}

; Function Attrs: mustprogress nounwind uwtable
define linkonce_odr dso_local noundef nonnull align 8 dereferenceable(32) ptr @_ZNSt15_Deque_iteratorIhRhPhEpLEl(ptr noundef nonnull align 8 dereferenceable(32) %this, i64 noundef %__n) #1 comdat align 2 {
entry:
  %this.addr = alloca ptr, align 8
  %__n.addr = alloca i64, align 8
  %__offset = alloca i64, align 8
  %__node_offset = alloca i64, align 8
  store ptr %this, ptr %this.addr, align 8
  store i64 %__n, ptr %__n.addr, align 8
  %this1 = load ptr, ptr %this.addr, align 8
  %0 = load i64, ptr %__n.addr, align 8
  %_M_cur = getelementptr inbounds %"struct.std::_Deque_iterator", ptr %this1, i32 0, i32 0
  %1 = load ptr, ptr %_M_cur, align 8
  %_M_first = getelementptr inbounds %"struct.std::_Deque_iterator", ptr %this1, i32 0, i32 1
  %2 = load ptr, ptr %_M_first, align 8
  %sub.ptr.lhs.cast = ptrtoint ptr %1 to i64
  %sub.ptr.rhs.cast = ptrtoint ptr %2 to i64
  %sub.ptr.sub = sub i64 %sub.ptr.lhs.cast, %sub.ptr.rhs.cast
  %add = add nsw i64 %0, %sub.ptr.sub
  store i64 %add, ptr %__offset, align 8
  %3 = load i64, ptr %__offset, align 8
  %cmp = icmp sge i64 %3, 0
  br i1 %cmp, label %land.lhs.true, label %if.else

land.lhs.true:                                    ; preds = %entry
  %4 = load i64, ptr %__offset, align 8
  %call = call noundef i64 @_ZNSt15_Deque_iteratorIhRhPhE14_S_buffer_sizeEv() #10
  %cmp2 = icmp slt i64 %4, %call
  br i1 %cmp2, label %if.then, label %if.else

if.then:                                          ; preds = %land.lhs.true
  %5 = load i64, ptr %__n.addr, align 8
  %_M_cur3 = getelementptr inbounds %"struct.std::_Deque_iterator", ptr %this1, i32 0, i32 0
  %6 = load ptr, ptr %_M_cur3, align 8
  %add.ptr = getelementptr inbounds i8, ptr %6, i64 %5
  store ptr %add.ptr, ptr %_M_cur3, align 8
  br label %if.end

if.else:                                          ; preds = %land.lhs.true, %entry
  %7 = load i64, ptr %__offset, align 8
  %cmp4 = icmp sgt i64 %7, 0
  br i1 %cmp4, label %cond.true, label %cond.false

cond.true:                                        ; preds = %if.else
  %8 = load i64, ptr %__offset, align 8
  %call5 = call noundef i64 @_ZNSt15_Deque_iteratorIhRhPhE14_S_buffer_sizeEv() #10
  %div = sdiv i64 %8, %call5
  br label %cond.end

cond.false:                                       ; preds = %if.else
  %9 = load i64, ptr %__offset, align 8
  %sub = sub nsw i64 0, %9
  %sub6 = sub nsw i64 %sub, 1
  %call7 = call noundef i64 @_ZNSt15_Deque_iteratorIhRhPhE14_S_buffer_sizeEv() #10
  %div8 = udiv i64 %sub6, %call7
  %sub9 = sub nsw i64 0, %div8
  %sub10 = sub nsw i64 %sub9, 1
  br label %cond.end

cond.end:                                         ; preds = %cond.false, %cond.true
  %cond = phi i64 [ %div, %cond.true ], [ %sub10, %cond.false ]
  store i64 %cond, ptr %__node_offset, align 8
  %_M_node = getelementptr inbounds %"struct.std::_Deque_iterator", ptr %this1, i32 0, i32 3
  %10 = load ptr, ptr %_M_node, align 8
  %11 = load i64, ptr %__node_offset, align 8
  %add.ptr11 = getelementptr inbounds ptr, ptr %10, i64 %11
  call void @_ZNSt15_Deque_iteratorIhRhPhE11_M_set_nodeEPS1_(ptr noundef nonnull align 8 dereferenceable(32) %this1, ptr noundef %add.ptr11) #10
  %_M_first12 = getelementptr inbounds %"struct.std::_Deque_iterator", ptr %this1, i32 0, i32 1
  %12 = load ptr, ptr %_M_first12, align 8
  %13 = load i64, ptr %__offset, align 8
  %14 = load i64, ptr %__node_offset, align 8
  %call13 = call noundef i64 @_ZNSt15_Deque_iteratorIhRhPhE14_S_buffer_sizeEv() #10
  %mul = mul nsw i64 %14, %call13
  %sub14 = sub nsw i64 %13, %mul
  %add.ptr15 = getelementptr inbounds i8, ptr %12, i64 %sub14
  %_M_cur16 = getelementptr inbounds %"struct.std::_Deque_iterator", ptr %this1, i32 0, i32 0
  store ptr %add.ptr15, ptr %_M_cur16, align 8
  br label %if.end

if.end:                                           ; preds = %cond.end, %if.then
  ret ptr %this1
}

; Function Attrs: mustprogress nounwind uwtable
define linkonce_odr dso_local void @_ZNSt15_Deque_iteratorIhRhPhEC2ERKS2_(ptr noundef nonnull align 8 dereferenceable(32) %this, ptr noundef nonnull align 8 dereferenceable(32) %__x) unnamed_addr #1 comdat align 2 {
entry:
  %this.addr = alloca ptr, align 8
  %__x.addr = alloca ptr, align 8
  store ptr %this, ptr %this.addr, align 8
  store ptr %__x, ptr %__x.addr, align 8
  %this1 = load ptr, ptr %this.addr, align 8
  %_M_cur = getelementptr inbounds %"struct.std::_Deque_iterator", ptr %this1, i32 0, i32 0
  %0 = load ptr, ptr %__x.addr, align 8
  %_M_cur2 = getelementptr inbounds %"struct.std::_Deque_iterator", ptr %0, i32 0, i32 0
  %1 = load ptr, ptr %_M_cur2, align 8
  store ptr %1, ptr %_M_cur, align 8
  %_M_first = getelementptr inbounds %"struct.std::_Deque_iterator", ptr %this1, i32 0, i32 1
  %2 = load ptr, ptr %__x.addr, align 8
  %_M_first3 = getelementptr inbounds %"struct.std::_Deque_iterator", ptr %2, i32 0, i32 1
  %3 = load ptr, ptr %_M_first3, align 8
  store ptr %3, ptr %_M_first, align 8
  %_M_last = getelementptr inbounds %"struct.std::_Deque_iterator", ptr %this1, i32 0, i32 2
  %4 = load ptr, ptr %__x.addr, align 8
  %_M_last4 = getelementptr inbounds %"struct.std::_Deque_iterator", ptr %4, i32 0, i32 2
  %5 = load ptr, ptr %_M_last4, align 8
  store ptr %5, ptr %_M_last, align 8
  %_M_node = getelementptr inbounds %"struct.std::_Deque_iterator", ptr %this1, i32 0, i32 3
  %6 = load ptr, ptr %__x.addr, align 8
  %_M_node5 = getelementptr inbounds %"struct.std::_Deque_iterator", ptr %6, i32 0, i32 3
  %7 = load ptr, ptr %_M_node5, align 8
  store ptr %7, ptr %_M_node, align 8
  ret void
}

; Function Attrs: mustprogress nounwind uwtable
define linkonce_odr dso_local noundef nonnull align 1 dereferenceable(1) ptr @_ZNKSt15_Deque_iteratorIhRhPhEdeEv(ptr noundef nonnull align 8 dereferenceable(32) %this) #1 comdat align 2 {
entry:
  %this.addr = alloca ptr, align 8
  store ptr %this, ptr %this.addr, align 8
  %this1 = load ptr, ptr %this.addr, align 8
  %_M_cur = getelementptr inbounds %"struct.std::_Deque_iterator", ptr %this1, i32 0, i32 0
  %0 = load ptr, ptr %_M_cur, align 8
  ret ptr %0
}

; Function Attrs: mustprogress nounwind uwtable
define linkonce_odr dso_local void @_ZStplRKSt15_Deque_iteratorIhRhPhEl(ptr noalias sret(%"struct.std::_Deque_iterator") align 8 %agg.result, ptr noundef nonnull align 8 dereferenceable(32) %__x, i64 noundef %__n) #1 comdat {
entry:
  %result.ptr = alloca ptr, align 8
  %__x.addr = alloca ptr, align 8
  %__n.addr = alloca i64, align 8
  store ptr %agg.result, ptr %result.ptr, align 8
  store ptr %__x, ptr %__x.addr, align 8
  store i64 %__n, ptr %__n.addr, align 8
  %0 = load ptr, ptr %__x.addr, align 8
  call void @_ZNSt15_Deque_iteratorIhRhPhEC2ERKS2_(ptr noundef nonnull align 8 dereferenceable(32) %agg.result, ptr noundef nonnull align 8 dereferenceable(32) %0) #10
  %1 = load i64, ptr %__n.addr, align 8
  %call = call noundef nonnull align 8 dereferenceable(32) ptr @_ZNSt15_Deque_iteratorIhRhPhEpLEl(ptr noundef nonnull align 8 dereferenceable(32) %agg.result, i64 noundef %1) #10
  ret void
}

; Function Attrs: mustprogress nounwind uwtable
define linkonce_odr dso_local noundef nonnull align 1 dereferenceable(1) ptr @_ZNKSt15_Deque_iteratorIhRhPhEixEl(ptr noundef nonnull align 8 dereferenceable(32) %this, i64 noundef %__n) #1 comdat align 2 {
entry:
  %this.addr = alloca ptr, align 8
  %__n.addr = alloca i64, align 8
  %ref.tmp = alloca %"struct.std::_Deque_iterator", align 8
  store ptr %this, ptr %this.addr, align 8
  store i64 %__n, ptr %__n.addr, align 8
  %this1 = load ptr, ptr %this.addr, align 8
  %0 = load i64, ptr %__n.addr, align 8
  call void @_ZStplRKSt15_Deque_iteratorIhRhPhEl(ptr sret(%"struct.std::_Deque_iterator") align 8 %ref.tmp, ptr noundef nonnull align 8 dereferenceable(32) %this1, i64 noundef %0) #10
  %call = call noundef nonnull align 1 dereferenceable(1) ptr @_ZNKSt15_Deque_iteratorIhRhPhEdeEv(ptr noundef nonnull align 8 dereferenceable(32) %ref.tmp) #10
  ret ptr %call
}

; Function Attrs: mustprogress nounwind uwtable
define linkonce_odr dso_local noundef nonnull align 1 dereferenceable(1) ptr @_ZNKSt5dequeIhSaIhEEixEm(ptr noundef nonnull align 8 dereferenceable(80) %this, i64 noundef %__n) #1 comdat align 2 {
entry:
  %this.addr = alloca ptr, align 8
  %__n.addr = alloca i64, align 8
  store ptr %this, ptr %this.addr, align 8
  store i64 %__n, ptr %__n.addr, align 8
  %this1 = load ptr, ptr %this.addr, align 8
  %_M_impl = getelementptr inbounds %"class.std::_Deque_base", ptr %this1, i32 0, i32 0
  %_M_start = getelementptr inbounds %"struct.std::_Deque_base<unsigned char, std::allocator<unsigned char>>::_Deque_impl_data", ptr %_M_impl, i32 0, i32 2
  %0 = load i64, ptr %__n.addr, align 8
  %call = call noundef nonnull align 1 dereferenceable(1) ptr @_ZNKSt15_Deque_iteratorIhRhPhEixEl(ptr noundef nonnull align 8 dereferenceable(32) %_M_start, i64 noundef %0) #10
  ret ptr %call
}

; Function Attrs: mustprogress nounwind uwtable
define dso_local noundef zeroext i8 @_ZNK3net22QuicSentEntropyManager16GetPacketEntropyEm(ptr noundef nonnull align 8 dereferenceable(128) %this, i64 noundef %packet_number) #1 align 2 {
entry:
  %this.addr = alloca ptr, align 8
  %packet_number.addr = alloca i64, align 8
  store ptr %this, ptr %this.addr, align 8
  store i64 %packet_number, ptr %packet_number.addr, align 8
  %this1 = load ptr, ptr %this.addr, align 8
  %packets_entropy_ = getelementptr inbounds %"class.net::QuicSentEntropyManager", ptr %this1, i32 0, i32 1
  %0 = load i64, ptr %packet_number.addr, align 8
  %map_offset_ = getelementptr inbounds %"class.net::QuicSentEntropyManager", ptr %this1, i32 0, i32 2
  %1 = load i64, ptr %map_offset_, align 8
  %sub = sub i64 %0, %1
  %call = call noundef nonnull align 1 dereferenceable(1) ptr @_ZNKSt5dequeIhSaIhEEixEm(ptr noundef nonnull align 8 dereferenceable(80) %packets_entropy_, i64 noundef %sub) #10
  %2 = load i8, ptr %call, align 1
  ret i8 %2
}

; Function Attrs: mustprogress nounwind uwtable
define dso_local void @_ZNK3net22QuicSentEntropyManager23UpdateCumulativeEntropyEmPNS0_17CumulativeEntropyE(ptr noundef nonnull align 8 dereferenceable(128) %this, i64 noundef %packet_number, ptr noundef %cumulative) #1 align 2 {
entry:
  %this.addr = alloca ptr, align 8
  %packet_number.addr = alloca i64, align 8
  %cumulative.addr = alloca ptr, align 8
  store ptr %this, ptr %this.addr, align 8
  store i64 %packet_number, ptr %packet_number.addr, align 8
  store ptr %cumulative, ptr %cumulative.addr, align 8
  %this1 = load ptr, ptr %this.addr, align 8
  br label %while.cond

while.cond:                                       ; preds = %while.body, %entry
  %0 = load ptr, ptr %cumulative.addr, align 8
  %packet_number2 = getelementptr inbounds %"struct.net::QuicSentEntropyManager::CumulativeEntropy", ptr %0, i32 0, i32 0
  %1 = load i64, ptr %packet_number2, align 8
  %2 = load i64, ptr %packet_number.addr, align 8
  %cmp = icmp ult i64 %1, %2
  br i1 %cmp, label %while.body, label %while.end

while.body:                                       ; preds = %while.cond
  %3 = load ptr, ptr %cumulative.addr, align 8
  %packet_number3 = getelementptr inbounds %"struct.net::QuicSentEntropyManager::CumulativeEntropy", ptr %3, i32 0, i32 0
  %4 = load i64, ptr %packet_number3, align 8
  %inc = add i64 %4, 1
  store i64 %inc, ptr %packet_number3, align 8
  %5 = load ptr, ptr %cumulative.addr, align 8
  %packet_number4 = getelementptr inbounds %"struct.net::QuicSentEntropyManager::CumulativeEntropy", ptr %5, i32 0, i32 0
  %6 = load i64, ptr %packet_number4, align 8
  %call = call noundef zeroext i8 @_ZNK3net22QuicSentEntropyManager16GetPacketEntropyEm(ptr noundef nonnull align 8 dereferenceable(128) %this1, i64 noundef %6)
  %conv = zext i8 %call to i32
  %7 = load ptr, ptr %cumulative.addr, align 8
  %entropy = getelementptr inbounds %"struct.net::QuicSentEntropyManager::CumulativeEntropy", ptr %7, i32 0, i32 1
  %8 = load i8, ptr %entropy, align 8
  %conv5 = zext i8 %8 to i32
  %xor = xor i32 %conv5, %conv
  %conv6 = trunc i32 %xor to i8
  store i8 %conv6, ptr %entropy, align 8
  br label %while.cond, !llvm.loop !5

while.end:                                        ; preds = %while.cond
  ret void
}