; Function Attrs: mustprogress nofree norecurse nosync nounwind memory(read, argmem: readwrite, inaccessiblemem: none) uwtable
define dso_local void @_ZNK3net22QuicSentEntropyManager23UpdateCumulativeEntropyEmPNS0_17CumulativeEntropyE(ptr nocapture noundef nonnull readonly align 8 dereferenceable(128) %this, i64 noundef %packet_number, ptr nocapture noundef %cumulative) local_unnamed_addr #5 align 2 {
entry:
  %cumulative.promoted = load i64, ptr %cumulative, align 8
  %cmp6 = icmp ult i64 %cumulative.promoted, %packet_number
  br i1 %cmp6, label %while.body.lr.ph, label %while.end

while.body.lr.ph:                                 ; preds = %entry
  %map_offset_.i = getelementptr inbounds i8, ptr %this, i64 88
  %_M_start.i.i = getelementptr inbounds i8, ptr %this, i64 24
  %_M_first3.i.i.i.i.i = getelementptr inbounds i8, ptr %this, i64 32
  %_M_node5.i.i.i.i.i = getelementptr inbounds i8, ptr %this, i64 48
  %entropy = getelementptr inbounds i8, ptr %cumulative, i64 8
  br label %while.body

while.body:                                       ; preds = %while.body.lr.ph, %_ZNK3net22QuicSentEntropyManager16GetPacketEntropyEm.exit
  %inc57 = phi i64 [ %cumulative.promoted, %while.body.lr.ph ], [ %inc, %_ZNK3net22QuicSentEntropyManager16GetPacketEntropyEm.exit ]
  %inc = add nuw i64 %inc57, 1
  store i64 %inc, ptr %cumulative, align 8
  %0 = load i64, ptr %map_offset_.i, align 8
  %sub.i = sub i64 %inc, %0
  %1 = load ptr, ptr %_M_start.i.i, align 8, !noalias !10
  %2 = load ptr, ptr %_M_first3.i.i.i.i.i, align 8, !noalias !10
  %3 = load ptr, ptr %_M_node5.i.i.i.i.i, align 8, !noalias !10
  %sub.ptr.lhs.cast.i.i.i.i.i = ptrtoint ptr %1 to i64
  %sub.ptr.rhs.cast.i.i.i.i.i = ptrtoint ptr %2 to i64
  %sub.ptr.sub.i.i.i.i.i = sub i64 %sub.ptr.lhs.cast.i.i.i.i.i, %sub.ptr.rhs.cast.i.i.i.i.i
  %add.i.i.i.i.i = add nsw i64 %sub.ptr.sub.i.i.i.i.i, %sub.i
  %cmp.i.i.i.i.i = icmp sgt i64 %add.i.i.i.i.i, -1
  br i1 %cmp.i.i.i.i.i, label %land.lhs.true.i.i.i.i.i, label %cond.false.i.i.i.i.i

land.lhs.true.i.i.i.i.i:                          ; preds = %while.body
  %cmp2.i.i.i.i.i = icmp ult i64 %add.i.i.i.i.i, 512
  br i1 %cmp2.i.i.i.i.i, label %if.then.i.i.i.i.i, label %cond.true.i.i.i.i.i

if.then.i.i.i.i.i:                                ; preds = %land.lhs.true.i.i.i.i.i
  %add.ptr.i.i.i.i.i = getelementptr inbounds i8, ptr %1, i64 %sub.i
  br label %_ZNK3net22QuicSentEntropyManager16GetPacketEntropyEm.exit

cond.true.i.i.i.i.i:                              ; preds = %land.lhs.true.i.i.i.i.i
  %div911.i.i.i.i.i = lshr i64 %add.i.i.i.i.i, 9
  br label %cond.end.i.i.i.i.i

cond.false.i.i.i.i.i:                             ; preds = %while.body
  %sub10.i.i.i.i.i = ashr i64 %add.i.i.i.i.i, 9
  br label %cond.end.i.i.i.i.i

cond.end.i.i.i.i.i:                               ; preds = %cond.false.i.i.i.i.i, %cond.true.i.i.i.i.i
  %cond.i.i.i.i.i = phi i64 [ %div911.i.i.i.i.i, %cond.true.i.i.i.i.i ], [ %sub10.i.i.i.i.i, %cond.false.i.i.i.i.i ]
  %add.ptr11.i.i.i.i.i = getelementptr inbounds ptr, ptr %3, i64 %cond.i.i.i.i.i
  %4 = load ptr, ptr %add.ptr11.i.i.i.i.i, align 8, !noalias !10
  %mul.i.i.i.i.i = shl nsw i64 %cond.i.i.i.i.i, 9
  %sub14.i.i.i.i.i = sub nsw i64 %add.i.i.i.i.i, %mul.i.i.i.i.i
  %add.ptr15.i.i.i.i.i = getelementptr inbounds i8, ptr %4, i64 %sub14.i.i.i.i.i
  br label %_ZNK3net22QuicSentEntropyManager16GetPacketEntropyEm.exit

_ZNK3net22QuicSentEntropyManager16GetPacketEntropyEm.exit: ; preds = %if.then.i.i.i.i.i, %cond.end.i.i.i.i.i
  %storemerge.i.i.i.i.i = phi ptr [ %add.ptr15.i.i.i.i.i, %cond.end.i.i.i.i.i ], [ %add.ptr.i.i.i.i.i, %if.then.i.i.i.i.i ]
  %5 = load i8, ptr %storemerge.i.i.i.i.i, align 1
  %6 = load i8, ptr %entropy, align 8
  %xor4 = xor i8 %6, %5
  store i8 %xor4, ptr %entropy, align 8
  %exitcond.not = icmp eq i64 %inc, %packet_number
  br i1 %exitcond.not, label %while.end, label %while.body, !llvm.loop !13

while.end:                                        ; preds = %_ZNK3net22QuicSentEntropyManager16GetPacketEntropyEm.exit, %entry
  ret void
}